target datalayout = "e-m:e-p270:32:32-p271:32:32-p272:64:64-i64:64-i128:128-f80:128-n8:16:32:64-S128"
target triple = "x86_64-pc-linux-gnu"

%struct.Curl_cftype = type { ptr, i32, i32, ptr, ptr, ptr, ptr, ptr, ptr, ptr, ptr, ptr, ptr, ptr, ptr, ptr }
%struct.Curl_cfilter = type { ptr, ptr, ptr, ptr, i32, i8 }
%struct.Curl_easy = type { i32, i64, i64, ptr, %struct.Curl_llist_node, %struct.Curl_llist_node, i32, i32, %struct.Curl_message, %struct.easy_pollset, %struct.Names, ptr, ptr, ptr, ptr, %struct.SingleRequest, %struct.UserDefined, ptr, ptr, ptr, %struct.Progress, %struct.UrlState, ptr, %struct.PureInfo, %struct.curl_tlssessioninfo }
%struct.Curl_llist_node = type { ptr, ptr, ptr, ptr }
%struct.Curl_message = type { %struct.Curl_llist_node, %struct.CURLMsg }
%struct.CURLMsg = type { i32, ptr, %union.anon.0 }
%union.anon.0 = type { ptr }
%struct.easy_pollset = type { [5 x i32], i32, [5 x i8] }
%struct.Names = type { ptr, i32 }
%struct.SingleRequest = type <{ i64, i64, i64, i64, %struct.curltime, i32, i32, i32, i32, i64, i32, i32, i8, i8, [2 x i8], i32, ptr, ptr, %struct.bufq, i64, i64, ptr, ptr, %union.anon.1, ptr, i8, i32, [3 x i8] }>
%struct.curltime = type { i64, i32 }
%struct.bufq = type { ptr, ptr, ptr, ptr, i64, i64, i64, i32 }
%union.anon.1 = type { ptr }
%struct.UserDefined = type <{ ptr, ptr, ptr, ptr, ptr, ptr, i64, i64, i64, ptr, ptr, i64, ptr, ptr, ptr, ptr, ptr, ptr, ptr, ptr, ptr, ptr, ptr, ptr, ptr, ptr, ptr, ptr, ptr, ptr, ptr, ptr, ptr, ptr, ptr, i64, i64, i64, i64, i64, i64, i64, i64, i64, ptr, ptr, %struct.curl_mimepart, ptr, ptr, ptr, i64, %struct.ssl_config_data, %struct.ssl_config_data, ptr, i16, i8, i8, %struct.ssl_general_config, i32, i32, i32, [4 x i8], ptr, ptr, i64, i32, i8, i8, i8, i8, ptr, ptr, ptr, i32, [4 x i8], [74 x ptr], [8 x ptr], i32, i32, i32, [4 x i8], ptr, i32, [4 x i8], ptr, ptr, ptr, ptr, ptr, i32, i32, i32, i32, i32, i32, i32, i32, i64, ptr, ptr, i64, ptr, i64, ptr, ptr, ptr, ptr, i32, i16, i16, i16, i8, i8, i8, i8, i8, i8, i8, i8, i64, [6 x i8] }>
%struct.curl_mimepart = type { ptr, ptr, i32, i32, ptr, ptr, ptr, ptr, ptr, ptr, ptr, ptr, ptr, ptr, ptr, i64, %struct.mime_state, ptr, %struct.mime_encoder_state, i64 }
%struct.mime_state = type { i32, ptr, i64 }
%struct.mime_encoder_state = type { i64, i64, i64, [256 x i8] }
%struct.ssl_config_data = type { %struct.ssl_primary_config, i64, ptr, ptr, ptr, ptr, ptr, ptr, ptr, i16 }
%struct.ssl_primary_config = type { ptr, ptr, ptr, ptr, ptr, ptr, ptr, ptr, ptr, ptr, ptr, ptr, ptr, ptr, i8, i32, i8, i8 }
%struct.ssl_general_config = type { i32 }
%struct.Progress = type { i64, %struct.pgrs_dir, %struct.pgrs_dir, i64, i64, i32, i32, i64, i64, i64, i64, i64, i64, i64, i64, i64, %struct.curltime, %struct.curltime, %struct.curltime, %struct.curltime, %struct.curltime, [6 x i64], [6 x %struct.curltime], i32, i8 }
%struct.pgrs_dir = type { i64, i64, i64, %struct.pgrs_measure }
%struct.pgrs_measure = type { %struct.curltime, i64 }
%struct.UrlState = type { %struct.curltime, i64, i64, %struct.dynbuf, ptr, i64, ptr, i32, i32, i32, ptr, i32, i64, i32, ptr, %struct.digestdata, %struct.digestdata, %struct.auth, %struct.auth, %struct.Curl_async, ptr, i8, %struct.curltime, %struct.Curl_tree, %struct.Curl_llist, [15 x %struct.time_node], ptr, ptr, i64, i64, i64, i64, [32 x i8], i64, ptr, ptr, ptr, %struct.urlpieces, ptr, ptr, ptr, ptr, ptr, i64, %struct.dynbuf, %struct.Curl_llist, [2 x %struct.curl_header], ptr, i32, ptr, ptr, %struct.store_netrc, %struct.dynamically_allocated_data, i8, i8, i8, i8, i32 }
%struct.digestdata = type { ptr, ptr, ptr, ptr, ptr, ptr, i32, i8, i8 }
%struct.auth = type { i64, i64, i64, i8 }
%struct.Curl_async = type { ptr, ptr, ptr, ptr, i32, i32, i8 }
%struct.Curl_tree = type { ptr, ptr, ptr, ptr, %struct.curltime, ptr }
%struct.time_node = type { %struct.Curl_llist_node, %struct.curltime, i32 }
%struct.urlpieces = type { ptr, ptr, ptr, ptr, ptr, ptr, ptr, ptr }
%struct.dynbuf = type { ptr, i64, i64, i64 }
%struct.Curl_llist = type { ptr, ptr, ptr, i64 }
%struct.curl_header = type { ptr, ptr, i64, i64, i32, ptr }
%struct.store_netrc = type { %struct.dynbuf, ptr, i8 }
%struct.dynamically_allocated_data = type { ptr, ptr, ptr, ptr, ptr, ptr, ptr, ptr, ptr, ptr, ptr, ptr, ptr, ptr }
%struct.PureInfo = type { i32, i32, i32, i64, i64, i64, i64, i64, i64, i64, ptr, ptr, i64, i32, %struct.ip_quadruple, i32, ptr, i32, %struct.curl_certinfo, i32, i8 }
%struct.ip_quadruple = type { [46 x i8], [46 x i8], i32, i32 }
%struct.curl_certinfo = type { i32, ptr }
%struct.curl_tlssessioninfo = type { i32, ptr }
%struct.curl_trc_feat = type { ptr, i32 }
%struct.cf_hc_ctx = type { i32, ptr, %struct.curltime, i32, [2 x %struct.cf_hc_baller], i64, i32, i32 }
%struct.cf_hc_baller = type { ptr, ptr, i32, %struct.curltime, i32, i32, i8 }

@.str.13 = private unnamed_addr constant [24 x i8] c"shutdown -> %d, done=%d\00", align 1

; Function Attrs: nounwind uwtable
define internal zeroext i1 @cf_hc_baller_is_active(ptr noundef %0) #0 {
  %2 = alloca ptr, align 8
  store ptr %0, ptr %2, align 8, !tbaa !123
  %3 = load ptr, ptr %2, align 8, !tbaa !123
  %4 = getelementptr inbounds nuw %struct.cf_hc_baller, ptr %3, i32 0, i32 1
  %5 = load ptr, ptr %4, align 8, !tbaa !125
  %6 = icmp ne ptr %5, null
  br i1 %6, label %7, label %13

7:                                                ; preds = %1
  %8 = load ptr, ptr %2, align 8, !tbaa !123
  %9 = getelementptr inbounds nuw %struct.cf_hc_baller, ptr %8, i32 0, i32 2
  %10 = load i32, ptr %9, align 8, !tbaa !117
  %11 = icmp ne i32 %10, 0
  %12 = xor i1 %11, true
  br label %13

13:                                               ; preds = %7, %1
  %14 = phi i1 [ false, %1 ], [ %12, %7 ]
  ret i1 %14
}

; Function Attrs: nounwind uwtable
define internal i32 @cf_hc_shutdown(ptr noundef %0, ptr noundef %1, ptr noundef %2) #0 {
  %4 = alloca i32, align 4
  %5 = alloca ptr, align 8
  %6 = alloca ptr, align 8
  %7 = alloca ptr, align 8
  %8 = alloca ptr, align 8
  %9 = alloca i64, align 8
  %10 = alloca i32, align 4
  %11 = alloca i32, align 4
  %12 = alloca ptr, align 8
  %13 = alloca i8, align 1
  store ptr %0, ptr %5, align 8, !tbaa !3
  store ptr %1, ptr %6, align 8, !tbaa !8
  store ptr %2, ptr %7, align 8, !tbaa !92
  call void @llvm.lifetime.start.p0(i64 8, ptr %8) #5
  %14 = load ptr, ptr %5, align 8, !tbaa !3
  %15 = getelementptr inbounds nuw %struct.Curl_cfilter, ptr %14, i32 0, i32 2
  %16 = load ptr, ptr %15, align 8, !tbaa !10
  store ptr %16, ptr %8, align 8, !tbaa !15
  call void @llvm.lifetime.start.p0(i64 8, ptr %9) #5
  call void @llvm.lifetime.start.p0(i64 4, ptr %10) #5
  store i32 0, ptr %10, align 4, !tbaa !94
  br label %17

17:                                               ; preds = %3
  br label %18

18:                                               ; preds = %17
  br label %19

19:                                               ; preds = %18
  %20 = load ptr, ptr %5, align 8, !tbaa !3
  %21 = getelementptr inbounds nuw %struct.Curl_cfilter, ptr %20, i32 0, i32 5
  %22 = load i8, ptr %21, align 4
  %23 = and i8 %22, 1
  %24 = zext i8 %23 to i32
  %25 = icmp ne i32 %24, 0
  br i1 %25, label %26, label %28

26:                                               ; preds = %19
  %27 = load ptr, ptr %7, align 8, !tbaa !92
  store i8 1, ptr %27, align 1, !tbaa !90
  store i32 0, ptr %4, align 4
  store i32 1, ptr %11, align 4
  br label %189

28:                                               ; preds = %19
  store i64 0, ptr %9, align 8, !tbaa !96
  br label %29

29:                                               ; preds = %82, %28
  %30 = load i64, ptr %9, align 8, !tbaa !96
  %31 = load ptr, ptr %8, align 8, !tbaa !15
  %32 = getelementptr inbounds nuw %struct.cf_hc_ctx, ptr %31, i32 0, i32 5
  %33 = load i64, ptr %32, align 8, !tbaa !99
  %34 = icmp ult i64 %30, %33
  br i1 %34, label %35, label %85

35:                                               ; preds = %29
  call void @llvm.lifetime.start.p0(i64 8, ptr %12) #5
  %36 = load ptr, ptr %8, align 8, !tbaa !15
  %37 = getelementptr inbounds nuw %struct.cf_hc_ctx, ptr %36, i32 0, i32 4
  %38 = load i64, ptr %9, align 8, !tbaa !96
  %39 = getelementptr inbounds nuw [2 x %struct.cf_hc_baller], ptr %37, i64 0, i64 %38
  store ptr %39, ptr %12, align 8, !tbaa !123
  call void @llvm.lifetime.start.p0(i64 1, ptr %13) #5
  store i8 0, ptr %13, align 1, !tbaa !90
  %40 = load ptr, ptr %12, align 8, !tbaa !123
  %41 = call zeroext i1 @cf_hc_baller_is_active(ptr noundef %40)
  br i1 %41, label %42, label %49

42:                                               ; preds = %35
  %43 = load ptr, ptr %12, align 8, !tbaa !123
  %44 = getelementptr inbounds nuw %struct.cf_hc_baller, ptr %43, i32 0, i32 6
  %45 = load i8, ptr %44, align 8
  %46 = and i8 %45, 1
  %47 = zext i8 %46 to i32
  %48 = icmp ne i32 %47, 0
  br i1 %48, label %49, label %50

49:                                               ; preds = %42, %35
  store i32 6, ptr %11, align 4
  br label %79

50:                                               ; preds = %42
  %51 = load ptr, ptr %12, align 8, !tbaa !123
  %52 = getelementptr inbounds nuw %struct.cf_hc_baller, ptr %51, i32 0, i32 1
  %53 = load ptr, ptr %52, align 8, !tbaa !125
  %54 = getelementptr inbounds nuw %struct.Curl_cfilter, ptr %53, i32 0, i32 0
  %55 = load ptr, ptr %54, align 8, !tbaa !86
  %56 = getelementptr inbounds nuw %struct.Curl_cftype, ptr %55, i32 0, i32 6
  %57 = load ptr, ptr %56, align 8, !tbaa !126
  %58 = load ptr, ptr %12, align 8, !tbaa !123
  %59 = getelementptr inbounds nuw %struct.cf_hc_baller, ptr %58, i32 0, i32 1
  %60 = load ptr, ptr %59, align 8, !tbaa !125
  %61 = load ptr, ptr %6, align 8, !tbaa !8
  %62 = call i32 %57(ptr noundef %60, ptr noundef %61, ptr noundef %13)
  %63 = load ptr, ptr %12, align 8, !tbaa !123
  %64 = getelementptr inbounds nuw %struct.cf_hc_baller, ptr %63, i32 0, i32 2
  store i32 %62, ptr %64, align 8, !tbaa !117
  %65 = load ptr, ptr %12, align 8, !tbaa !123
  %66 = getelementptr inbounds nuw %struct.cf_hc_baller, ptr %65, i32 0, i32 2
  %67 = load i32, ptr %66, align 8, !tbaa !117
  %68 = icmp ne i32 %67, 0
  br i1 %68, label %72, label %69

69:                                               ; preds = %50
  %70 = load i8, ptr %13, align 1, !tbaa !90, !range !113, !noundef !114
  %71 = trunc i8 %70 to i1
  br i1 %71, label %72, label %78

72:                                               ; preds = %69, %50
  %73 = load ptr, ptr %12, align 8, !tbaa !123
  %74 = getelementptr inbounds nuw %struct.cf_hc_baller, ptr %73, i32 0, i32 6
  %75 = load i8, ptr %74, align 8
  %76 = and i8 %75, -2
  %77 = or i8 %76, 1
  store i8 %77, ptr %74, align 8
  br label %78

78:                                               ; preds = %72, %69
  store i32 0, ptr %11, align 4
  br label %79

79:                                               ; preds = %78, %49
  call void @llvm.lifetime.end.p0(i64 1, ptr %13) #5
  call void @llvm.lifetime.end.p0(i64 8, ptr %12) #5
  %80 = load i32, ptr %11, align 4
  switch i32 %80, label %191 [
    i32 0, label %81
    i32 6, label %82
  ]

81:                                               ; preds = %79
  br label %82

82:                                               ; preds = %81, %79
  %83 = load i64, ptr %9, align 8, !tbaa !96
  %84 = add i64 %83, 1
  store i64 %84, ptr %9, align 8, !tbaa !96
  br label %29, !llvm.loop !127

85:                                               ; preds = %29
  %86 = load ptr, ptr %7, align 8, !tbaa !92
  store i8 1, ptr %86, align 1, !tbaa !90
  store i64 0, ptr %9, align 8, !tbaa !96
  br label %87

87:                                               ; preds = %106, %85
  %88 = load i64, ptr %9, align 8, !tbaa !96
  %89 = load ptr, ptr %8, align 8, !tbaa !15
  %90 = getelementptr inbounds nuw %struct.cf_hc_ctx, ptr %89, i32 0, i32 5
  %91 = load i64, ptr %90, align 8, !tbaa !99
  %92 = icmp ult i64 %88, %91
  br i1 %92, label %93, label %109

93:                                               ; preds = %87
  %94 = load ptr, ptr %8, align 8, !tbaa !15
  %95 = getelementptr inbounds nuw %struct.cf_hc_ctx, ptr %94, i32 0, i32 4
  %96 = load i64, ptr %9, align 8, !tbaa !96
  %97 = getelementptr inbounds nuw [2 x %struct.cf_hc_baller], ptr %95, i64 0, i64 %96
  %98 = getelementptr inbounds nuw %struct.cf_hc_baller, ptr %97, i32 0, i32 6
  %99 = load i8, ptr %98, align 8
  %100 = and i8 %99, 1
  %101 = zext i8 %100 to i32
  %102 = icmp ne i32 %101, 0
  br i1 %102, label %105, label %103

103:                                              ; preds = %93
  %104 = load ptr, ptr %7, align 8, !tbaa !92
  store i8 0, ptr %104, align 1, !tbaa !90
  br label %105

105:                                              ; preds = %103, %93
  br label %106

106:                                              ; preds = %105
  %107 = load i64, ptr %9, align 8, !tbaa !96
  %108 = add i64 %107, 1
  store i64 %108, ptr %9, align 8, !tbaa !96
  br label %87, !llvm.loop !128

109:                                              ; preds = %87
  %110 = load ptr, ptr %7, align 8, !tbaa !92
  %111 = load i8, ptr %110, align 1, !tbaa !90, !range !113, !noundef !114
  %112 = trunc i8 %111 to i1
  br i1 %112, label %113, label %140

113:                                              ; preds = %109
  store i64 0, ptr %9, align 8, !tbaa !96
  br label %114

114:                                              ; preds = %136, %113
  %115 = load i64, ptr %9, align 8, !tbaa !96
  %116 = load ptr, ptr %8, align 8, !tbaa !15
  %117 = getelementptr inbounds nuw %struct.cf_hc_ctx, ptr %116, i32 0, i32 5
  %118 = load i64, ptr %117, align 8, !tbaa !99
  %119 = icmp ult i64 %115, %118
  br i1 %119, label %120, label %139

120:                                              ; preds = %114
  %121 = load ptr, ptr %8, align 8, !tbaa !15
  %122 = getelementptr inbounds nuw %struct.cf_hc_ctx, ptr %121, i32 0, i32 4
  %123 = load i64, ptr %9, align 8, !tbaa !96
  %124 = getelementptr inbounds nuw [2 x %struct.cf_hc_baller], ptr %122, i64 0, i64 %123
  %125 = getelementptr inbounds nuw %struct.cf_hc_baller, ptr %124, i32 0, i32 2
  %126 = load i32, ptr %125, align 8, !tbaa !117
  %127 = icmp ne i32 %126, 0
  br i1 %127, label %128, label %135

128:                                              ; preds = %120
  %129 = load ptr, ptr %8, align 8, !tbaa !15
  %130 = getelementptr inbounds nuw %struct.cf_hc_ctx, ptr %129, i32 0, i32 4
  %131 = load i64, ptr %9, align 8, !tbaa !96
  %132 = getelementptr inbounds nuw [2 x %struct.cf_hc_baller], ptr %130, i64 0, i64 %131
  %133 = getelementptr inbounds nuw %struct.cf_hc_baller, ptr %132, i32 0, i32 2
  %134 = load i32, ptr %133, align 8, !tbaa !117
  store i32 %134, ptr %10, align 4, !tbaa !94
  br label %135

135:                                              ; preds = %128, %120
  br label %136

136:                                              ; preds = %135
  %137 = load i64, ptr %9, align 8, !tbaa !96
  %138 = add i64 %137, 1
  store i64 %138, ptr %9, align 8, !tbaa !96
  br label %114, !llvm.loop !129

139:                                              ; preds = %114
  br label %140

140:                                              ; preds = %139, %109
  br label %141

141:                                              ; preds = %140
  %142 = load ptr, ptr %6, align 8, !tbaa !8
  %143 = icmp ne ptr %142, null
  br i1 %143, label %144, label %185

144:                                              ; preds = %141
  %145 = load ptr, ptr %6, align 8, !tbaa !8
  %146 = getelementptr inbounds nuw %struct.Curl_easy, ptr %145, i32 0, i32 16
  %147 = getelementptr inbounds nuw %struct.UserDefined, ptr %146, i32 0, i32 119
  %148 = load i64, ptr %147, align 2
  %149 = lshr i64 %148, 31
  %150 = and i64 %149, 1
  %151 = trunc i64 %150 to i32
  %152 = icmp ne i32 %151, 0
  br i1 %152, label %153, label %185

153:                                              ; preds = %144
  %154 = load ptr, ptr %6, align 8, !tbaa !8
  %155 = getelementptr inbounds nuw %struct.Curl_easy, ptr %154, i32 0, i32 21
  %156 = getelementptr inbounds nuw %struct.UrlState, ptr %155, i32 0, i32 50
  %157 = load ptr, ptr %156, align 8, !tbaa !17
  %158 = icmp ne ptr %157, null
  br i1 %158, label %159, label %167

159:                                              ; preds = %153
  %160 = load ptr, ptr %6, align 8, !tbaa !8
  %161 = getelementptr inbounds nuw %struct.Curl_easy, ptr %160, i32 0, i32 21
  %162 = getelementptr inbounds nuw %struct.UrlState, ptr %161, i32 0, i32 50
  %163 = load ptr, ptr %162, align 8, !tbaa !17
  %164 = getelementptr inbounds nuw %struct.curl_trc_feat, ptr %163, i32 0, i32 1
  %165 = load i32, ptr %164, align 8, !tbaa !84
  %166 = icmp sge i32 %165, 1
  br i1 %166, label %167, label %185

167:                                              ; preds = %159, %153
  %168 = load ptr, ptr %5, align 8, !tbaa !3
  %169 = icmp ne ptr %168, null
  br i1 %169, label %170, label %185

170:                                              ; preds = %167
  %171 = load ptr, ptr %5, align 8, !tbaa !3
  %172 = getelementptr inbounds nuw %struct.Curl_cfilter, ptr %171, i32 0, i32 0
  %173 = load ptr, ptr %172, align 8, !tbaa !86
  %174 = getelementptr inbounds nuw %struct.Curl_cftype, ptr %173, i32 0, i32 2
  %175 = load i32, ptr %174, align 4, !tbaa !87
  %176 = icmp sge i32 %175, 1
  br i1 %176, label %177, label %185

177:                                              ; preds = %170
  %178 = load ptr, ptr %6, align 8, !tbaa !8
  %179 = load ptr, ptr %5, align 8, !tbaa !3
  %180 = load i32, ptr %10, align 4, !tbaa !94
  %181 = load ptr, ptr %7, align 8, !tbaa !92
  %182 = load i8, ptr %181, align 1, !tbaa !90, !range !113, !noundef !114
  %183 = trunc i8 %182 to i1
  %184 = zext i1 %183 to i32
  call void (ptr, ptr, ptr, ...) @Curl_trc_cf_infof(ptr noundef %178, ptr noundef %179, ptr noundef @.str.13, i32 noundef %180, i32 noundef %184)
  br label %185

185:                                              ; preds = %177, %170, %167, %159, %144, %141
  br label %186

186:                                              ; preds = %185
  br label %187

187:                                              ; preds = %186
  %188 = load i32, ptr %10, align 4, !tbaa !94
  store i32 %188, ptr %4, align 4
  store i32 1, ptr %11, align 4
  br label %189

189:                                              ; preds = %187, %26
  call void @llvm.lifetime.end.p0(i64 4, ptr %10) #5
  call void @llvm.lifetime.end.p0(i64 8, ptr %9) #5
  call void @llvm.lifetime.end.p0(i64 8, ptr %8) #5
  %190 = load i32, ptr %4, align 4
  ret i32 %190

191:                                              ; preds = %79
  unreachable
}